; Function Attrs: nounwind sspstrong uwtable
define dso_local i32 @qemu_chr_be_can_write(ptr noundef readonly captures(none) %s) local_unnamed_addr #0 {
entry:
  %be1 = getelementptr inbounds nuw i8, ptr %s, i64 88
  %0 = load ptr, ptr %be1, align 8
  %tobool.not = icmp eq ptr %0, null
  br i1 %tobool.not, label %return, label %lor.lhs.false

lor.lhs.false:                                    ; preds = %entry
  %chr_can_read = getelementptr inbounds nuw i8, ptr %0, i64 16
  %1 = load ptr, ptr %chr_can_read, align 8
  %tobool2.not = icmp eq ptr %1, null
  br i1 %tobool2.not, label %return, label %if.end

if.end:                                           ; preds = %lor.lhs.false
  %opaque = getelementptr inbounds nuw i8, ptr %0, i64 40
  %2 = load ptr, ptr %opaque, align 8
  %call = tail call i32 %1(ptr noundef %2) #13
  br label %return

return:                                           ; preds = %entry, %lor.lhs.false, %if.end
  %retval.0 = phi i32 [ %call, %if.end ], [ 0, %lor.lhs.false ], [ 0, %entry ]
  ret i32 %retval.0
}